///////////////////////////////////////////////////////////////////////////////
//
// IAR C/C++ Compiler V10.10.1.4655 for 8051              10/Jun/2018  17:53:42
// Copyright 2004-2017 IAR Systems AB.
// Standalone license - IAR Embedded Workbench for 8051
//
//    Core               =  plain
//    Code model         =  banked
//    Data model         =  large
//    Calling convention =  xdata reentrant
//    Constant location  =  data_rom
//    Dptr setup         =  1,16
//                          
//    Source file        =  
//        D:\Texas
//        Instruments\ZStack-CC2530-2.5.1a\Projects\zstack\Samples\ClassDesignApp\Source\light.c
//    Command line       =  
//        -f C:\Users\John_Doe\AppData\Local\Temp\EW54FD.tmp ("D:\Texas
//        Instruments\ZStack-CC2530-2.5.1a\Projects\zstack\Samples\ClassDesignApp\Source\light.c"
//        -D NWK_AUTO_POLL -D ZTOOL_P1 -D RFD_RCVC_ALWAYS_ON=TRUE -D xMT_TASK
//        -D xMT_SYS_FUNC -D MT_ZDO_FUNC -D xLCD_SUPPORTED=DEBUG -D
//        xPOWER_SAVING -lC "D:\Texas
//        Instruments\ZStack-CC2530-2.5.1a\Projects\zstack\Samples\ClassDesignApp\CC2530DB\SensorDevice\List"
//        -lA "D:\Texas
//        Instruments\ZStack-CC2530-2.5.1a\Projects\zstack\Samples\ClassDesignApp\CC2530DB\SensorDevice\List"
//        --diag_suppress Pe001,Pa010 -o "D:\Texas
//        Instruments\ZStack-CC2530-2.5.1a\Projects\zstack\Samples\ClassDesignApp\CC2530DB\SensorDevice\Obj"
//        -e --debug --core=plain --dptr=16,1 --data_model=large
//        --code_model=banked --calling_convention=xdata_reentrant
//        --place_constants=data_rom --nr_virtual_regs 8 -f "D:\Texas
//        Instruments\ZStack-CC2530-2.5.1a\Projects\zstack\Samples\ClassDesignApp\CC2530DB\..\..\..\Tools\CC2530DB\f8wEndev.cfg"
//        (-DCPU32MHZ -DROOT=__near_func -DMAC_CFG_TX_DATA_MAX=3
//        -DMAC_CFG_TX_MAX=6 -DMAC_CFG_RX_MAX=3) -f "D:\Texas
//        Instruments\ZStack-CC2530-2.5.1a\Projects\zstack\Samples\ClassDesignApp\CC2530DB\..\..\..\Tools\CC2530DB\f8wConfig.cfg"
//        (-DZIGBEEPRO -DSECURE=0 -DZG_SECURE_DYNAMIC=0 -DREFLECTOR
//        -DDEFAULT_CHANLIST=0x07FFF800 -DZDAPP_CONFIG_PAN_ID=0x0127
//        -DNWK_START_DELAY=100 -DEXTENDED_JOINING_RANDOM_MASK=0x007F
//        -DBEACON_REQUEST_DELAY=100 -DBEACON_REQ_DELAY_MASK=0x00FF
//        -DLINK_STATUS_JITTER_MASK=0x007F -DROUTE_EXPIRY_TIME=30
//        -DAPSC_ACK_WAIT_DURATION_POLLED=3000 -DNWK_INDIRECT_MSG_TIMEOUT=7
//        -DMAX_RREQ_ENTRIES=8 -DAPSC_MAX_FRAME_RETRIES=3
//        -DNWK_MAX_DATA_RETRIES=2 -DMAX_POLL_FAILURE_RETRIES=2 -DMAX_BCAST=9
//        -DAPS_MAX_GROUPS=16 -DMAX_RTG_ENTRIES=40 -DNWK_MAX_BINDING_ENTRIES=4
//        -DMAX_BINDING_CLUSTER_IDS=4 "-DDEFAULT_KEY={0x01, 0x03, 0x05, 0x07,
//        0x09, 0x0B, 0x0D, 0x0F, 0x00, 0x02, 0x04, 0x06, 0x08, 0x0A, 0x0C,
//        0x0D}" -DMAC_MAX_FRAME_SIZE=116 -DZDNWKMGR_MIN_TRANSMISSIONS=20
//        "-DCONST=const __code" -DGENERIC=__generic -DRFD_RCVC_ALWAYS_ON=FALSE
//        -DPOLL_RATE=1000 -DQUEUED_POLL_RATE=100 -DRESPONSE_POLL_RATE=100
//        -DREJOIN_POLL_RATE=440) -I "D:\Texas
//        Instruments\ZStack-CC2530-2.5.1a\Projects\zstack\Samples\ClassDesignApp\CC2530DB\"
//        -I "D:\Texas
//        Instruments\ZStack-CC2530-2.5.1a\Projects\zstack\Samples\ClassDesignApp\CC2530DB\..\Source\"
//        -I "D:\Texas
//        Instruments\ZStack-CC2530-2.5.1a\Projects\zstack\Samples\ClassDesignApp\CC2530DB\..\..\..\ZMain\TI2530DB\"
//        -I "D:\Texas
//        Instruments\ZStack-CC2530-2.5.1a\Projects\zstack\Samples\ClassDesignApp\CC2530DB\..\..\..\..\..\Components\hal\include\"
//        -I "D:\Texas
//        Instruments\ZStack-CC2530-2.5.1a\Projects\zstack\Samples\ClassDesignApp\CC2530DB\..\..\..\..\..\Components\hal\target\CC2530EB\"
//        -I "D:\Texas
//        Instruments\ZStack-CC2530-2.5.1a\Projects\zstack\Samples\ClassDesignApp\CC2530DB\..\..\..\..\..\Components\mac\include\"
//        -I "D:\Texas
//        Instruments\ZStack-CC2530-2.5.1a\Projects\zstack\Samples\ClassDesignApp\CC2530DB\..\..\..\..\..\Components\mac\high_level\"
//        -I "D:\Texas
//        Instruments\ZStack-CC2530-2.5.1a\Projects\zstack\Samples\ClassDesignApp\CC2530DB\..\..\..\..\..\Components\mac\low_level\srf04\"
//        -I "D:\Texas
//        Instruments\ZStack-CC2530-2.5.1a\Projects\zstack\Samples\ClassDesignApp\CC2530DB\..\..\..\..\..\Components\mac\low_level\srf04\single_chip\"
//        -I "D:\Texas
//        Instruments\ZStack-CC2530-2.5.1a\Projects\zstack\Samples\ClassDesignApp\CC2530DB\..\..\..\..\..\Components\mt\"
//        -I "D:\Texas
//        Instruments\ZStack-CC2530-2.5.1a\Projects\zstack\Samples\ClassDesignApp\CC2530DB\..\..\..\..\..\Components\osal\include\"
//        -I "D:\Texas
//        Instruments\ZStack-CC2530-2.5.1a\Projects\zstack\Samples\ClassDesignApp\CC2530DB\..\..\..\..\..\Components\services\saddr\"
//        -I "D:\Texas
//        Instruments\ZStack-CC2530-2.5.1a\Projects\zstack\Samples\ClassDesignApp\CC2530DB\..\..\..\..\..\Components\services\sdata\"
//        -I "D:\Texas
//        Instruments\ZStack-CC2530-2.5.1a\Projects\zstack\Samples\ClassDesignApp\CC2530DB\..\..\..\..\..\Components\stack\af\"
//        -I "D:\Texas
//        Instruments\ZStack-CC2530-2.5.1a\Projects\zstack\Samples\ClassDesignApp\CC2530DB\..\..\..\..\..\Components\stack\nwk\"
//        -I "D:\Texas
//        Instruments\ZStack-CC2530-2.5.1a\Projects\zstack\Samples\ClassDesignApp\CC2530DB\..\..\..\..\..\Components\stack\sapi\"
//        -I "D:\Texas
//        Instruments\ZStack-CC2530-2.5.1a\Projects\zstack\Samples\ClassDesignApp\CC2530DB\..\..\..\..\..\Components\stack\sec\"
//        -I "D:\Texas
//        Instruments\ZStack-CC2530-2.5.1a\Projects\zstack\Samples\ClassDesignApp\CC2530DB\..\..\..\..\..\Components\stack\sys\"
//        -I "D:\Texas
//        Instruments\ZStack-CC2530-2.5.1a\Projects\zstack\Samples\ClassDesignApp\CC2530DB\..\..\..\..\..\Components\stack\zdo\"
//        -I "D:\Texas
//        Instruments\ZStack-CC2530-2.5.1a\Projects\zstack\Samples\ClassDesignApp\CC2530DB\..\..\..\..\..\Components\zmac\"
//        -I "D:\Texas
//        Instruments\ZStack-CC2530-2.5.1a\Projects\zstack\Samples\ClassDesignApp\CC2530DB\..\..\..\..\..\Components\zmac\f8w\"
//        -Ohz --require_prototypes --no_code_motion)
//    Locale             =  Chinese (Simplified)_China.936
//    List file          =  
//        D:\Texas
//        Instruments\ZStack-CC2530-2.5.1a\Projects\zstack\Samples\ClassDesignApp\CC2530DB\SensorDevice\List\light.s51
//
///////////////////////////////////////////////////////////////////////////////

        NAME light

        RTMODEL "__SystemLibrary", "CLib"
        RTMODEL "__calling_convention", "xdata_reentrant"
        RTMODEL "__code_model", "banked"
        RTMODEL "__core", "plain"
        RTMODEL "__data_model", "large"
        RTMODEL "__dptr_size", "16"
        RTMODEL "__extended_stack", "disabled"
        RTMODEL "__location_for_constants", "data"
        RTMODEL "__number_of_dptrs", "1"
        RTMODEL "__register_banks", "*"
        RTMODEL "__rt_version", "1"

        RSEG DOVERLAY:DATA:NOROOT(0)
        RSEG IOVERLAY:IDATA:NOROOT(0)
        RSEG ISTACK:IDATA:NOROOT(0)
        RSEG PSTACK:XDATA:NOROOT(0)
        RSEG XSTACK:XDATA:NOROOT(0)

        EXTERN ?BANKED_ENTER_XDATA
        EXTERN ?BANKED_LEAVE_XDATA
        EXTERN ?BDISPATCH
        EXTERN ?US_DIV_MOD

        PUBLIC `??getLight::?relay`
        FUNCTION `??getLight::?relay`,0203H
        PUBWEAK ADCCON3
        PUBWEAK ADCH
        PUBWEAK ADCL
        PUBWEAK APCFG
        PUBWEAK _A_TCON
        PUBLIC getLight
        FUNCTION getLight,0203H
        ARGFRAME XSTACK, 0, STACK
        LOCFRAME ISTACK, 1, STACK
        LOCFRAME XSTACK, 9, STACK
        
          CFI Names cfiNames0
          CFI StackFrame CFA_SP SP IDATA
          CFI StackFrame CFA_PSP16 PSP16 XDATA
          CFI StackFrame CFA_XSP16 XSP16 XDATA
          CFI StaticOverlayFrame CFA_IOVERLAY IOVERLAY
          CFI StaticOverlayFrame CFA_DOVERLAY DOVERLAY
          CFI Resource `PSW.CY`:1, `B.BR0`:1, `B.BR1`:1, `B.BR2`:1, `B.BR3`:1
          CFI Resource `B.BR4`:1, `B.BR5`:1, `B.BR6`:1, `B.BR7`:1, `VB.BR8`:1
          CFI Resource `VB.BR9`:1, `VB.BR10`:1, `VB.BR11`:1, `VB.BR12`:1
          CFI Resource `VB.BR13`:1, `VB.BR14`:1, `VB.BR15`:1, VB:8, B:8, A:8
          CFI Resource PSW:8, DPL0:8, DPH0:8, R0:8, R1:8, R2:8, R3:8, R4:8, R5:8
          CFI Resource R6:8, R7:8, V0:8, V1:8, V2:8, V3:8, V4:8, V5:8, V6:8, V7:8
          CFI Resource SP:8, PSPH:8, PSPL:8, PSP16:16, XSPH:8, XSPL:8, XSP16:16
          CFI VirtualResource ?RET:24
          CFI Resource ?BRET_EXT:8
          CFI VirtualResource ?RET_HIGH:8, ?RET_LOW:8
          CFI ResourceParts PSP16 PSPH, PSPL
          CFI ResourceParts XSP16 XSPH, XSPL
          CFI ResourceParts ?RET ?BRET_EXT, ?RET_HIGH, ?RET_LOW
          CFI EndNames cfiNames0
        
          CFI Common cfiCommon0 Using cfiNames0
          CFI CodeAlign 1
          CFI DataAlign -1
          CFI ReturnAddress ?RET CODE
          CFI CFA_DOVERLAY Used
          CFI CFA_IOVERLAY Used
          CFI CFA_SP SP+-3
          CFI CFA_PSP16 PSP16+0
          CFI CFA_XSP16 XSP16+0
          CFI `PSW.CY` SameValue
          CFI `B.BR0` SameValue
          CFI `B.BR1` SameValue
          CFI `B.BR2` SameValue
          CFI `B.BR3` SameValue
          CFI `B.BR4` SameValue
          CFI `B.BR5` SameValue
          CFI `B.BR6` SameValue
          CFI `B.BR7` SameValue
          CFI `VB.BR8` SameValue
          CFI `VB.BR9` SameValue
          CFI `VB.BR10` SameValue
          CFI `VB.BR11` SameValue
          CFI `VB.BR12` SameValue
          CFI `VB.BR13` SameValue
          CFI `VB.BR14` SameValue
          CFI `VB.BR15` SameValue
          CFI VB SameValue
          CFI B Undefined
          CFI A Undefined
          CFI PSW SameValue
          CFI DPL0 SameValue
          CFI DPH0 SameValue
          CFI R0 Undefined
          CFI R1 Undefined
          CFI R2 Undefined
          CFI R3 Undefined
          CFI R4 Undefined
          CFI R5 Undefined
          CFI R6 SameValue
          CFI R7 SameValue
          CFI V0 SameValue
          CFI V1 SameValue
          CFI V2 SameValue
          CFI V3 SameValue
          CFI V4 SameValue
          CFI V5 SameValue
          CFI V6 SameValue
          CFI V7 SameValue
          CFI PSPH Undefined
          CFI PSPL Undefined
          CFI XSPH Undefined
          CFI XSPL Undefined
          CFI ?RET Concat
          CFI ?BRET_EXT Frame(CFA_SP, 3)
          CFI ?RET_HIGH Frame(CFA_SP, 2)
          CFI ?RET_LOW Frame(CFA_SP, 1)
          CFI EndCommon cfiCommon0
        
getLight            SYMBOL "getLight"
`??getLight::?relay` SYMBOL "?relay", getLight

// D:\Texas Instruments\ZStack-CC2530-2.5.1a\Projects\zstack\Samples\ClassDesignApp\Source\light.c
//    1 #include "ioCC2530.h"

        ASEGN SFR_AN:DATA:NOROOT,088H
// union <unnamed> volatile __sfr _A_TCON
_A_TCON:
        DATA8
        DS 1

        ASEGN SFR_AN:DATA:NOROOT,0b6H
// unsigned char volatile __sfr ADCCON3
ADCCON3:
        DATA8
        DS 1

        ASEGN SFR_AN:DATA:NOROOT,0baH
// unsigned char volatile __sfr ADCL
ADCL:
        DATA8
        DS 1

        ASEGN SFR_AN:DATA:NOROOT,0bbH
// unsigned char volatile __sfr ADCH
ADCH:
        DATA8
        DS 1

        ASEGN SFR_AN:DATA:NOROOT,0f2H
// unsigned char volatile __sfr APCFG
APCFG:
        DATA8
        DS 1
//    2 #include "stdio.h"
//    3 #include "light.h"
//    4 
//    5 #define uchar unsigned char 
//    6 #define uint unsigned int
//    7 
//    8 #define ADC_CHNN    0x05  //选用通道5
//    9 
//   10 /********************************************************
//   11  * @brief   读取ADC的值
//   12 ********************************************************/
//   13 static uint16 readAdc(uint8 channal)
//   14 {
//   15           uint16 value ; 
//   16           APCFG |= 1 << channal ; // 模拟信号设置
//   17           ADCIF = 0 ;
//   18          
//   19           ADCCON3 = channal;          
//   20           while ( !ADCIF ) ;  //等待转换完成
//   21           
//   22           value = ADCL ;
//   23           value |= ((uint16) ADCH) << 8 ;
//   24           
//   25           return value; 
//   26 }
//   27 
//   28 

        RSEG BANKED_CODE:HUGECODE:NOROOT(0)
//   29 uint8 getLight(void)
getLight:
          CFI Block cfiBlock0 Using cfiCommon0
          CFI Function getLight
        CODE
//   30 {
        MOV       A,#-0x9
        LCALL     ?BANKED_ENTER_XDATA
          CFI DPH0 load(1, XDATA, add(CFA_XSP16, literal(-1)))
          CFI DPL0 load(1, XDATA, add(CFA_XSP16, literal(-2)))
          CFI ?BRET_EXT load(1, XDATA, add(CFA_XSP16, literal(-3)))
          CFI ?RET_HIGH load(1, XDATA, add(CFA_XSP16, literal(-4)))
          CFI ?RET_LOW load(1, XDATA, add(CFA_XSP16, literal(-5)))
          CFI R7 load(1, XDATA, add(CFA_XSP16, literal(-6)))
          CFI V0 load(1, XDATA, add(CFA_XSP16, literal(-7)))
          CFI VB load(1, XDATA, add(CFA_XSP16, literal(-8)))
          CFI R6 load(1, XDATA, add(CFA_XSP16, literal(-9)))
          CFI CFA_SP SP+0
          CFI CFA_XSP16 add(XSP16, 9)
        ; Saved register size: 9
        ; Auto size: 0
//   31     uint AvgValue = 0;
        MOV       R0,#0x0
        MOV       R1,#0x0
//   32     uint8 result;
//   33     int i;
//   34     for (i = 0 ; i < 64 ; i++)
        MOV       R4,#0x40
//   35     {
//   36       AvgValue += readAdc(ADC_CHNN);             
//   37       AvgValue >>= 1;
??getLight_0:
        ORL       0xf2,#0x20
        CLR       0x88.5
        MOV       0xb6,#0x5
??getLight_1:
        MOV       C,0x88.5
        JNC       ??getLight_1
        MOV       A,0xba+0x0
        MOV       R3,0xbb
        MOV       R2,A
        MOV       A,R0
        ADD       A,R2
        MOV       R0,A
        MOV       A,R1
        ADDC      A,R3
        CLR       C
        RRC       A
        MOV       R1,A
        MOV       A,R0
        RRC       A
        MOV       R0,A
//   38     }
        DEC       R4
        MOV       A,R4
        JNZ       ??getLight_0
//   39 
//   40     result = (uint8)(96-(((AvgValue-500)/1000)*3));
//   41 
//   42     return result;
        MOV       A,R0
        ADD       A,#0xc
        MOV       R0,A
        MOV       A,R1
        ADDC      A,#-0x2
        MOV       R1,A
        MOV       R2,#-0x18
        MOV       R3,#0x3
        LCALL     ?US_DIV_MOD
        MOV       A,R0
        MOV       B,#0x3
        MUL       AB
        MOV       R0,A
        MOV       A,#0x60
        SUBB      A,R0
        MOV       R1,A
        MOV       R7,#0x1
        LJMP      ?BANKED_LEAVE_XDATA
          CFI EndBlock cfiBlock0
        REQUIRE APCFG
        REQUIRE _A_TCON
        REQUIRE ADCCON3
        REQUIRE ADCL
        REQUIRE ADCH
//   43 
//   44 }

        RSEG BANK_RELAYS:CODE:REORDER:NOROOT(0)
`??getLight::?relay`:
        CODE
        LCALL   ?BDISPATCH
        DATA24
        DC24    getLight

        END
// 
// 73 bytes in segment BANKED_CODE
//  6 bytes in segment BANK_RELAYS
//  5 bytes in segment SFR_AN
// 
//  6 bytes of CODE     memory
//  0 bytes of DATA     memory (+ 5 bytes shared)
// 73 bytes of HUGECODE memory
//
//Errors: none
//Warnings: none
